target datalayout = "e-m:e-p270:32:32-p271:32:32-p272:64:64-i64:64-i128:128-f80:128-n8:16:32:64-S128"
target triple = "x86_64-pc-linux-gnu"

%struct.dt_pthread_mutex_t = type { %union.pthread_mutex_t }
%union.pthread_mutex_t = type { %struct.__pthread_mutex_s }
%struct.__pthread_mutex_s = type { i32, i32, i32, i32, i32, i16, i16, %struct.__pthread_internal_list }
%struct.__pthread_internal_list = type { ptr, ptr }
%struct.dt_dev_pixelpipe_t = type { %struct.dt_dev_pixelpipe_cache_t, i32, i64, ptr, i32, i32, float, i32, i32, [12 x i8], %struct.dt_iop_buffer_dsc_t, ptr, ptr, ptr, ptr, i32, i32, i32, i32, ptr, i64, i32, i32, float, float, float, i64, %struct.dt_pthread_mutex_t, %struct.dt_pthread_mutex_t, %struct.dt_pthread_mutex_t, i32, i32, i32, %struct.dt_dev_detail_mask_t, i32, i32, i32, i32, i32, i32, i32, i32, i32, i32, i32, i32, i32, i32, [8 x i8], %struct.dt_image_t, i32, ptr, i32, ptr, ptr, ptr, i32, ptr, i64, [8 x i8] }
%struct.dt_dev_pixelpipe_cache_t = type { i32, i64, i64, ptr, ptr, ptr, ptr, ptr, ptr, i64, i32, i64, i64, i32, i32, i32 }
%struct.dt_iop_buffer_dsc_t = type { i32, i32, i32, [6 x [6 x i8]], %struct.anon, [12 x i8], %struct.anon.0, [4 x float], i32, [12 x i8] }
%struct.anon = type { i16, i16 }
%struct.anon.0 = type { i32, [12 x i8], [4 x float] }
%struct.dt_dev_detail_mask_t = type { %struct.dt_iop_roi_t, i64, ptr }
%struct.dt_iop_roi_t = type { i32, i32, i32, i32, float }
%struct.dt_image_t = type { i32, i32, float, float, float, float, float, float, float, [64 x i8], [64 x i8], [128 x i8], [64 x i8], [64 x i8], [64 x i8], [64 x i8], i64, i32, %union.dt_image_correction_data_t, [64 x i8], [64 x i8], [64 x i8], [128 x i8], i32, [256 x i8], i32, i32, i32, i32, i32, i32, i32, i32, i32, i32, float, i32, i32, i32, i32, i32, i32, i64, i64, i64, i64, i32, [12 x i8], %struct.dt_iop_buffer_dsc_t, [9 x float], ptr, i32, i32, %struct.dt_image_raw_parameters_t, %struct.dt_image_geoloc_t, %struct._color_harmony_t, i16, [4 x i16], i32, i32, float, float, [4 x float], [4 x [3 x float]], [4 x float], ptr, ptr, i32, i32, [8 x i8] }
%union.dt_image_correction_data_t = type { %struct.anon.2 }
%struct.anon.2 = type { i32, float, [11 x float], [11 x float], [11 x float], [11 x float], [11 x float] }
%struct.dt_image_raw_parameters_t = type { i32 }
%struct.dt_image_geoloc_t = type { double, double, double }
%struct._color_harmony_t = type { i32, i32, i32 }

; Function Attrs: nounwind uwtable
define void @dt_dev_pixelpipe_important_cacheline(ptr noundef %0, ptr noundef %1, i64 noundef %2) #0 {
  %4 = alloca ptr, align 8
  %5 = alloca ptr, align 8
  %6 = alloca i64, align 8
  %7 = alloca ptr, align 8
  %8 = alloca i32, align 4
  store ptr %0, ptr %4, align 8, !tbaa !6
  store ptr %1, ptr %5, align 8, !tbaa !33
  store i64 %2, ptr %6, align 8, !tbaa !13
  call void @llvm.lifetime.start.p0(i64 8, ptr %7) #17
  %9 = load ptr, ptr %4, align 8, !tbaa !6
  %10 = getelementptr inbounds nuw %struct.dt_dev_pixelpipe_t, ptr %9, i32 0, i32 0
  store ptr %10, ptr %7, align 8, !tbaa !15
  call void @llvm.lifetime.start.p0(i64 4, ptr %8) #17
  store i32 2, ptr %8, align 4, !tbaa !11
  br label %11

11:                                               ; preds = %59, %3
  %12 = load i32, ptr %8, align 4, !tbaa !11
  %13 = load ptr, ptr %7, align 8, !tbaa !15
  %14 = getelementptr inbounds nuw %struct.dt_dev_pixelpipe_cache_t, ptr %13, i32 0, i32 0
  %15 = load i32, ptr %14, align 8, !tbaa !17
  %16 = icmp slt i32 %12, %15
  br i1 %16, label %18, label %17

17:                                               ; preds = %11
  call void @llvm.lifetime.end.p0(i64 4, ptr %8) #17
  br label %62

18:                                               ; preds = %11
  %19 = load ptr, ptr %7, align 8, !tbaa !15
  %20 = getelementptr inbounds nuw %struct.dt_dev_pixelpipe_cache_t, ptr %19, i32 0, i32 3
  %21 = load ptr, ptr %20, align 8, !tbaa !27
  %22 = load i32, ptr %8, align 4, !tbaa !11
  %23 = sext i32 %22 to i64
  %24 = getelementptr inbounds ptr, ptr %21, i64 %23
  %25 = load ptr, ptr %24, align 8, !tbaa !33
  %26 = load ptr, ptr %5, align 8, !tbaa !33
  %27 = icmp eq ptr %25, %26
  br i1 %27, label %28, label %58

28:                                               ; preds = %18
  %29 = load i64, ptr %6, align 8, !tbaa !13
  %30 = load ptr, ptr %7, align 8, !tbaa !15
  %31 = getelementptr inbounds nuw %struct.dt_dev_pixelpipe_cache_t, ptr %30, i32 0, i32 4
  %32 = load ptr, ptr %31, align 8, !tbaa !28
  %33 = load i32, ptr %8, align 4, !tbaa !11
  %34 = sext i32 %33 to i64
  %35 = getelementptr inbounds i64, ptr %32, i64 %34
  %36 = load i64, ptr %35, align 8, !tbaa !13
  %37 = icmp eq i64 %29, %36
  br i1 %37, label %38, label %58

38:                                               ; preds = %28
  %39 = load ptr, ptr %7, align 8, !tbaa !15
  %40 = getelementptr inbounds nuw %struct.dt_dev_pixelpipe_cache_t, ptr %39, i32 0, i32 6
  %41 = load ptr, ptr %40, align 8, !tbaa !30
  %42 = load i32, ptr %8, align 4, !tbaa !11
  %43 = sext i32 %42 to i64
  %44 = getelementptr inbounds i64, ptr %41, i64 %43
  %45 = load i64, ptr %44, align 8, !tbaa !13
  %46 = icmp ne i64 %45, 0
  br i1 %46, label %47, label %58

47:                                               ; preds = %38
  %48 = load ptr, ptr %7, align 8, !tbaa !15
  %49 = getelementptr inbounds nuw %struct.dt_dev_pixelpipe_cache_t, ptr %48, i32 0, i32 0
  %50 = load i32, ptr %49, align 8, !tbaa !17
  %51 = sub nsw i32 0, %50
  %52 = load ptr, ptr %7, align 8, !tbaa !15
  %53 = getelementptr inbounds nuw %struct.dt_dev_pixelpipe_cache_t, ptr %52, i32 0, i32 7
  %54 = load ptr, ptr %53, align 8, !tbaa !31
  %55 = load i32, ptr %8, align 4, !tbaa !11
  %56 = sext i32 %55 to i64
  %57 = getelementptr inbounds i32, ptr %54, i64 %56
  store i32 %51, ptr %57, align 4, !tbaa !11
  br label %58

58:                                               ; preds = %47, %38, %28, %18
  br label %59

59:                                               ; preds = %58
  %60 = load i32, ptr %8, align 4, !tbaa !11
  %61 = add nsw i32 %60, 1
  store i32 %61, ptr %8, align 4, !tbaa !11
  br label %11

62:                                               ; preds = %17
  call void @llvm.lifetime.end.p0(i64 8, ptr %7) #17
  ret void
}