; Function Attrs: nofree norecurse nosync nounwind memory(readwrite, inaccessiblemem: none) uwtable
define void @dt_dev_pixelpipe_important_cacheline(ptr noundef readonly captures(none) %0, ptr noundef readnone %1, i64 noundef %2) local_unnamed_addr #8 {
  %4 = load i32, ptr %0, align 8, !tbaa !6
  %5 = icmp sgt i32 %4, 2
  br i1 %5, label %.lr.ph, label %._crit_edge

.lr.ph:                                           ; preds = %3
  %6 = getelementptr inbounds nuw i8, ptr %0, i64 24
  %7 = load ptr, ptr %6, align 8, !tbaa !19
  %8 = getelementptr inbounds nuw i8, ptr %0, i64 32
  %9 = getelementptr inbounds nuw i8, ptr %0, i64 48
  %10 = getelementptr inbounds nuw i8, ptr %0, i64 56
  br label %11

._crit_edge:                                      ; preds = %29, %3
  ret void

11:                                               ; preds = %.lr.ph, %29
  %12 = phi i32 [ %4, %.lr.ph ], [ %30, %29 ]
  %indvars.iv = phi i64 [ 2, %.lr.ph ], [ %indvars.iv.next, %29 ]
  %13 = getelementptr inbounds nuw ptr, ptr %7, i64 %indvars.iv
  %14 = load ptr, ptr %13, align 8, !tbaa !27
  %15 = icmp eq ptr %14, %1
  br i1 %15, label %16, label %29

16:                                               ; preds = %11
  %17 = load ptr, ptr %8, align 8, !tbaa !20
  %18 = getelementptr inbounds nuw i64, ptr %17, i64 %indvars.iv
  %19 = load i64, ptr %18, align 8, !tbaa !25
  %20 = icmp eq i64 %2, %19
  br i1 %20, label %21, label %29

21:                                               ; preds = %16
  %22 = load ptr, ptr %9, align 8, !tbaa !22
  %23 = getelementptr inbounds nuw i64, ptr %22, i64 %indvars.iv
  %24 = load i64, ptr %23, align 8, !tbaa !25
  %.not = icmp eq i64 %24, 0
  br i1 %.not, label %29, label %25

25:                                               ; preds = %21
  %26 = sub nsw i32 0, %12
  %27 = load ptr, ptr %10, align 8, !tbaa !23
  %28 = getelementptr inbounds nuw i32, ptr %27, i64 %indvars.iv
  store i32 %26, ptr %28, align 4, !tbaa !26
  %.pre = load i32, ptr %0, align 8, !tbaa !6
  br label %29

29:                                               ; preds = %11, %16, %21, %25
  %30 = phi i32 [ %12, %11 ], [ %12, %16 ], [ %12, %21 ], [ %.pre, %25 ]
  %indvars.iv.next = add nuw nsw i64 %indvars.iv, 1
  %31 = sext i32 %30 to i64
  %32 = icmp slt i64 %indvars.iv.next, %31
  br i1 %32, label %11, label %._crit_edge
}